; Function Attrs: mustprogress nofree norecurse nosync nounwind willreturn memory(argmem: readwrite) uwtable
define hidden void @_ZN11FpuStackSim3popEv(ptr nocapture noundef nonnull align 8 dereferenceable(44) %0) local_unnamed_addr #2 align 2 {
  %2 = getelementptr inbounds i8, ptr %0, i64 8
  %3 = load i32, ptr %2, align 8
  %4 = add nsw i32 %3, -1
  %5 = getelementptr inbounds i8, ptr %0, i64 12
  %6 = sext i32 %4 to i64
  %7 = getelementptr inbounds [8 x i32], ptr %5, i64 0, i64 %6
  store i32 -1, ptr %7, align 4
  %8 = load i32, ptr %2, align 8
  %9 = add nsw i32 %8, -1
  store i32 %9, ptr %2, align 8
  ret void
}